target datalayout = "e-m:e-p270:32:32-p271:32:32-p272:64:64-i64:64-i128:128-f80:128-n8:16:32:64-S128"
target triple = "x86_64-unknown-linux-gnu"

; Function Attrs: mustprogress nounwind uwtable
define dso_local noundef zeroext i1 @_ZN4node12NodePlatform16IdleTasksEnabledEPN2v87IsolateE(ptr noundef nonnull align 8 dereferenceable(137) %this, ptr noundef %isolate) unnamed_addr #4 align 2 {
entry:
  %this.addr = alloca ptr, align 8
  %isolate.addr = alloca ptr, align 8
  store ptr %this, ptr %this.addr, align 8
  store ptr %isolate, ptr %isolate.addr, align 8
  %this1 = load ptr, ptr %this.addr, align 8
  %0 = load ptr, ptr %isolate.addr, align 8
  %call = call noundef ptr @_ZN4node12NodePlatform10ForIsolateEPN2v87IsolateE(ptr noundef nonnull align 8 dereferenceable(137) %this1, ptr noundef %0)
  %vtable = load ptr, ptr %call, align 8
  %vfn = getelementptr inbounds ptr, ptr %vtable, i64 1
  %1 = load ptr, ptr %vfn, align 8
  %call2 = call noundef zeroext i1 %1(ptr noundef nonnull align 8 dereferenceable(8) %call)
  ret i1 %call2
}