; Function Attrs: mustprogress nounwind uwtable
define dso_local noundef zeroext i1 @_ZN4node12NodePlatform16IdleTasksEnabledEPN2v87IsolateE(ptr noundef nonnull align 8 dereferenceable(137) %this, ptr noundef %isolate) unnamed_addr #3 align 2 {
entry:
  %call = tail call noundef ptr @_ZN4node12NodePlatform10ForIsolateEPN2v87IsolateE(ptr noundef nonnull align 8 dereferenceable(137) %this, ptr noundef %isolate)
  %vtable = load ptr, ptr %call, align 8
  %vfn = getelementptr inbounds i8, ptr %vtable, i64 8
  %0 = load ptr, ptr %vfn, align 8
  %call2 = tail call noundef zeroext i1 %0(ptr noundef nonnull align 8 dereferenceable(8) %call) #23
  ret i1 %call2
}